#include <math.h>
#include <stdio.h>
#include <stdlib.h>
#include <string.h>


int main()
{
  int n,j;
  scanf("%d\n",&n);
  char string[100][81];
  for(int i=0;i<n;i++)
  gets(string[i]);//scanf("%s",string[i]);
  for(int i=0;i<n;i++)
  {
     int l=strlen(string[i]);
     j=0;
     if((string[i][0]>='A'&&string[i][0]<='Z')||(string[i][0]>='a'&&string[i][0]<='z')||string[i][0]=='_')
          {
          for(j=0;j<l;j++)
          if(string[i][j]>='A'&&string[i][j]<='Z'||string[i][j]>='a'&&string[i][j]<='z'||string[i][j]=='_'||string[i][j]>='0'&&string[i][j]<='9')
          continue;
           else
          break;
          }
          if(j>=l)
          printf("1\n");
          else 
          printf("0\n"); 
           
  }  
}

