; ModuleID = '58/1265.c'
source_filename = "58/1265.c"
target datalayout = "e-m:e-p270:32:32-p271:32:32-p272:64:64-i64:64-f80:128-n8:16:32:64-S128"
target triple = "x86_64-pc-linux-gnu"

@.str = private unnamed_addr constant [4 x i8] c"%d\0A\00", align 1
@.str.1 = private unnamed_addr constant [3 x i8] c"1\0A\00", align 1
@.str.2 = private unnamed_addr constant [3 x i8] c"0\0A\00", align 1

; Function Attrs: noinline nounwind uwtable
define dso_local i32 @main() #0 {
  %1 = alloca i32, align 4
  %2 = alloca i32, align 4
  %3 = alloca i32, align 4
  %4 = alloca [100 x [81 x i8]], align 16
  %5 = alloca i32, align 4
  %6 = alloca i32, align 4
  %7 = alloca i32, align 4
  store i32 0, i32* %1, align 4
  %8 = call i32 (i8*, ...) @__isoc99_scanf(i8* getelementptr inbounds ([4 x i8], [4 x i8]* @.str, i64 0, i64 0), i32* %2)
  store i32 0, i32* %5, align 4
  br label %9

9:                                                ; preds = %19, %0
  %10 = load i32, i32* %5, align 4
  %11 = load i32, i32* %2, align 4
  %12 = icmp slt i32 %10, %11
  br i1 %12, label %13, label %22

13:                                               ; preds = %9
  %14 = load i32, i32* %5, align 4
  %15 = sext i32 %14 to i64
  %16 = getelementptr inbounds [100 x [81 x i8]], [100 x [81 x i8]]* %4, i64 0, i64 %15
  %17 = getelementptr inbounds [81 x i8], [81 x i8]* %16, i64 0, i64 0
  %18 = call i32 (i8*, ...) bitcast (i32 (...)* @gets to i32 (i8*, ...)*)(i8* %17)
  br label %19

19:                                               ; preds = %13
  %20 = load i32, i32* %5, align 4
  %21 = add nsw i32 %20, 1
  store i32 %21, i32* %5, align 4
  br label %9

22:                                               ; preds = %9
  store i32 0, i32* %6, align 4
  br label %23

23:                                               ; preds = %163, %22
  %24 = load i32, i32* %6, align 4
  %25 = load i32, i32* %2, align 4
  %26 = icmp slt i32 %24, %25
  br i1 %26, label %27, label %166

27:                                               ; preds = %23
  %28 = load i32, i32* %6, align 4
  %29 = sext i32 %28 to i64
  %30 = getelementptr inbounds [100 x [81 x i8]], [100 x [81 x i8]]* %4, i64 0, i64 %29
  %31 = getelementptr inbounds [81 x i8], [81 x i8]* %30, i64 0, i64 0
  %32 = call i64 @strlen(i8* %31) #3
  %33 = trunc i64 %32 to i32
  store i32 %33, i32* %7, align 4
  store i32 0, i32* %3, align 4
  %34 = load i32, i32* %6, align 4
  %35 = sext i32 %34 to i64
  %36 = getelementptr inbounds [100 x [81 x i8]], [100 x [81 x i8]]* %4, i64 0, i64 %35
  %37 = getelementptr inbounds [81 x i8], [81 x i8]* %36, i64 0, i64 0
  %38 = load i8, i8* %37, align 1
  %39 = sext i8 %38 to i32
  %40 = icmp sge i32 %39, 65
  br i1 %40, label %41, label %49

41:                                               ; preds = %27
  %42 = load i32, i32* %6, align 4
  %43 = sext i32 %42 to i64
  %44 = getelementptr inbounds [100 x [81 x i8]], [100 x [81 x i8]]* %4, i64 0, i64 %43
  %45 = getelementptr inbounds [81 x i8], [81 x i8]* %44, i64 0, i64 0
  %46 = load i8, i8* %45, align 1
  %47 = sext i8 %46 to i32
  %48 = icmp sle i32 %47, 90
  br i1 %48, label %73, label %49

49:                                               ; preds = %41, %27
  %50 = load i32, i32* %6, align 4
  %51 = sext i32 %50 to i64
  %52 = getelementptr inbounds [100 x [81 x i8]], [100 x [81 x i8]]* %4, i64 0, i64 %51
  %53 = getelementptr inbounds [81 x i8], [81 x i8]* %52, i64 0, i64 0
  %54 = load i8, i8* %53, align 1
  %55 = sext i8 %54 to i32
  %56 = icmp sge i32 %55, 97
  br i1 %56, label %57, label %65

57:                                               ; preds = %49
  %58 = load i32, i32* %6, align 4
  %59 = sext i32 %58 to i64
  %60 = getelementptr inbounds [100 x [81 x i8]], [100 x [81 x i8]]* %4, i64 0, i64 %59
  %61 = getelementptr inbounds [81 x i8], [81 x i8]* %60, i64 0, i64 0
  %62 = load i8, i8* %61, align 1
  %63 = sext i8 %62 to i32
  %64 = icmp sle i32 %63, 122
  br i1 %64, label %73, label %65

65:                                               ; preds = %57, %49
  %66 = load i32, i32* %6, align 4
  %67 = sext i32 %66 to i64
  %68 = getelementptr inbounds [100 x [81 x i8]], [100 x [81 x i8]]* %4, i64 0, i64 %67
  %69 = getelementptr inbounds [81 x i8], [81 x i8]* %68, i64 0, i64 0
  %70 = load i8, i8* %69, align 1
  %71 = sext i8 %70 to i32
  %72 = icmp eq i32 %71, 95
  br i1 %72, label %73, label %154

73:                                               ; preds = %65, %57, %41
  store i32 0, i32* %3, align 4
  br label %74

74:                                               ; preds = %150, %73
  %75 = load i32, i32* %3, align 4
  %76 = load i32, i32* %7, align 4
  %77 = icmp slt i32 %75, %76
  br i1 %77, label %78, label %153

78:                                               ; preds = %74
  %79 = load i32, i32* %6, align 4
  %80 = sext i32 %79 to i64
  %81 = getelementptr inbounds [100 x [81 x i8]], [100 x [81 x i8]]* %4, i64 0, i64 %80
  %82 = load i32, i32* %3, align 4
  %83 = sext i32 %82 to i64
  %84 = getelementptr inbounds [81 x i8], [81 x i8]* %81, i64 0, i64 %83
  %85 = load i8, i8* %84, align 1
  %86 = sext i8 %85 to i32
  %87 = icmp sge i32 %86, 65
  br i1 %87, label %88, label %98

88:                                               ; preds = %78
  %89 = load i32, i32* %6, align 4
  %90 = sext i32 %89 to i64
  %91 = getelementptr inbounds [100 x [81 x i8]], [100 x [81 x i8]]* %4, i64 0, i64 %90
  %92 = load i32, i32* %3, align 4
  %93 = sext i32 %92 to i64
  %94 = getelementptr inbounds [81 x i8], [81 x i8]* %91, i64 0, i64 %93
  %95 = load i8, i8* %94, align 1
  %96 = sext i8 %95 to i32
  %97 = icmp sle i32 %96, 90
  br i1 %97, label %148, label %98

98:                                               ; preds = %88, %78
  %99 = load i32, i32* %6, align 4
  %100 = sext i32 %99 to i64
  %101 = getelementptr inbounds [100 x [81 x i8]], [100 x [81 x i8]]* %4, i64 0, i64 %100
  %102 = load i32, i32* %3, align 4
  %103 = sext i32 %102 to i64
  %104 = getelementptr inbounds [81 x i8], [81 x i8]* %101, i64 0, i64 %103
  %105 = load i8, i8* %104, align 1
  %106 = sext i8 %105 to i32
  %107 = icmp sge i32 %106, 97
  br i1 %107, label %108, label %118

108:                                              ; preds = %98
  %109 = load i32, i32* %6, align 4
  %110 = sext i32 %109 to i64
  %111 = getelementptr inbounds [100 x [81 x i8]], [100 x [81 x i8]]* %4, i64 0, i64 %110
  %112 = load i32, i32* %3, align 4
  %113 = sext i32 %112 to i64
  %114 = getelementptr inbounds [81 x i8], [81 x i8]* %111, i64 0, i64 %113
  %115 = load i8, i8* %114, align 1
  %116 = sext i8 %115 to i32
  %117 = icmp sle i32 %116, 122
  br i1 %117, label %148, label %118

118:                                              ; preds = %108, %98
  %119 = load i32, i32* %6, align 4
  %120 = sext i32 %119 to i64
  %121 = getelementptr inbounds [100 x [81 x i8]], [100 x [81 x i8]]* %4, i64 0, i64 %120
  %122 = load i32, i32* %3, align 4
  %123 = sext i32 %122 to i64
  %124 = getelementptr inbounds [81 x i8], [81 x i8]* %121, i64 0, i64 %123
  %125 = load i8, i8* %124, align 1
  %126 = sext i8 %125 to i32
  %127 = icmp eq i32 %126, 95
  br i1 %127, label %148, label %128

128:                                              ; preds = %118
  %129 = load i32, i32* %6, align 4
  %130 = sext i32 %129 to i64
  %131 = getelementptr inbounds [100 x [81 x i8]], [100 x [81 x i8]]* %4, i64 0, i64 %130
  %132 = load i32, i32* %3, align 4
  %133 = sext i32 %132 to i64
  %134 = getelementptr inbounds [81 x i8], [81 x i8]* %131, i64 0, i64 %133
  %135 = load i8, i8* %134, align 1
  %136 = sext i8 %135 to i32
  %137 = icmp sge i32 %136, 48
  br i1 %137, label %138, label %149

138:                                              ; preds = %128
  %139 = load i32, i32* %6, align 4
  %140 = sext i32 %139 to i64
  %141 = getelementptr inbounds [100 x [81 x i8]], [100 x [81 x i8]]* %4, i64 0, i64 %140
  %142 = load i32, i32* %3, align 4
  %143 = sext i32 %142 to i64
  %144 = getelementptr inbounds [81 x i8], [81 x i8]* %141, i64 0, i64 %143
  %145 = load i8, i8* %144, align 1
  %146 = sext i8 %145 to i32
  %147 = icmp sle i32 %146, 57
  br i1 %147, label %148, label %149

148:                                              ; preds = %138, %118, %108, %88
  br label %150

149:                                              ; preds = %138, %128
  br label %153

150:                                              ; preds = %148
  %151 = load i32, i32* %3, align 4
  %152 = add nsw i32 %151, 1
  store i32 %152, i32* %3, align 4
  br label %74

153:                                              ; preds = %149, %74
  br label %154

154:                                              ; preds = %153, %65
  %155 = load i32, i32* %3, align 4
  %156 = load i32, i32* %7, align 4
  %157 = icmp sge i32 %155, %156
  br i1 %157, label %158, label %160

158:                                              ; preds = %154
  %159 = call i32 (i8*, ...) @printf(i8* getelementptr inbounds ([3 x i8], [3 x i8]* @.str.1, i64 0, i64 0))
  br label %162

160:                                              ; preds = %154
  %161 = call i32 (i8*, ...) @printf(i8* getelementptr inbounds ([3 x i8], [3 x i8]* @.str.2, i64 0, i64 0))
  br label %162

162:                                              ; preds = %160, %158
  br label %163

163:                                              ; preds = %162
  %164 = load i32, i32* %6, align 4
  %165 = add nsw i32 %164, 1
  store i32 %165, i32* %6, align 4
  br label %23

166:                                              ; preds = %23
  %167 = load i32, i32* %1, align 4
  ret i32 %167
}

declare dso_local i32 @__isoc99_scanf(i8*, ...) #1

declare dso_local i32 @gets(...) #1

; Function Attrs: nounwind readonly
declare dso_local i64 @strlen(i8*) #2

declare dso_local i32 @printf(i8*, ...) #1


!llvm.module.flags = !{!0}
!llvm.ident = !{!1}

!0 = !{i32 1, !"wchar_size", i32 4}
!1 = !{!"clang version 10.0.0-4ubuntu1 "}
